; ModuleID = 'source-C-CXX/51/3698.c'
source_filename = "source-C-CXX/51/3698.c"
target datalayout = "e-m:e-p270:32:32-p271:32:32-p272:64:64-i64:64-f80:128-n8:16:32:64-S128"
target triple = "x86_64-pc-linux-gnu"

@.str = private unnamed_addr constant [6 x i8] c"%d%d\0A\00", align 1
@.str.1 = private unnamed_addr constant [3 x i8] c"%d\00", align 1
@.str.2 = private unnamed_addr constant [4 x i8] c"%d \00", align 1

; Function Attrs: nofree nounwind sspstrong uwtable
define dso_local void @main() local_unnamed_addr #0 {
  %1 = alloca [200 x i32], align 16
  %2 = ptrtoint [200 x i32]* %1 to i64
  %3 = bitcast [200 x i32]* %1 to i8*
  %4 = alloca i32, align 4
  %5 = alloca i32, align 4
  call void @llvm.lifetime.start.p0i8(i64 800, i8* nonnull %3) #5
  %6 = bitcast i32* %4 to i8*
  call void @llvm.lifetime.start.p0i8(i64 4, i8* nonnull %6) #5
  %7 = bitcast i32* %5 to i8*
  call void @llvm.lifetime.start.p0i8(i64 4, i8* nonnull %7) #5
  %8 = call i32 (i8*, ...) @__isoc99_scanf(i8* getelementptr inbounds ([6 x i8], [6 x i8]* @.str, i64 0, i64 0), i32* nonnull %4, i32* nonnull %5)
  %9 = load i32, i32* %4, align 4, !tbaa !5
  %10 = icmp sgt i32 %9, 0
  br i1 %10, label %119, label %11

11:                                               ; preds = %0
  %12 = load i32, i32* %5, align 4
  br label %127

13:                                               ; preds = %119
  %14 = load i32, i32* %5, align 4
  %15 = icmp sgt i32 %124, 0
  br i1 %15, label %16, label %127

16:                                               ; preds = %13
  %17 = zext i32 %124 to i64
  %18 = sext i32 %14 to i64
  %19 = icmp ult i32 %124, 8
  br i1 %19, label %117, label %20

20:                                               ; preds = %16
  %21 = add nsw i64 %17, -1
  %22 = add nsw i64 %18, %17
  %23 = shl nsw i64 %22, 2
  %24 = add i64 %23, %2
  %25 = add i64 %24, -4
  %26 = call { i64, i1 } @llvm.umul.with.overflow.i64(i64 %21, i64 4)
  %27 = extractvalue { i64, i1 } %26, 0
  %28 = extractvalue { i64, i1 } %26, 1
  %29 = icmp ugt i64 %27, %25
  %30 = or i1 %29, %28
  %31 = shl nuw nsw i64 %17, 2
  %32 = add i64 %31, %2
  %33 = add i64 %32, -4
  %34 = call { i64, i1 } @llvm.umul.with.overflow.i64(i64 %21, i64 4)
  %35 = extractvalue { i64, i1 } %34, 0
  %36 = extractvalue { i64, i1 } %34, 1
  %37 = icmp ugt i64 %35, %33
  %38 = or i1 %37, %36
  %39 = or i1 %30, %38
  br i1 %39, label %117, label %40

40:                                               ; preds = %20
  %41 = getelementptr [200 x i32], [200 x i32]* %1, i64 0, i64 %18
  %42 = add nsw i64 %18, %17
  %43 = getelementptr [200 x i32], [200 x i32]* %1, i64 0, i64 %42
  %44 = getelementptr [200 x i32], [200 x i32]* %1, i64 0, i64 %17
  %45 = icmp ult i32* %41, %44
  %46 = bitcast i32* %43 to [200 x i32]*
  %47 = icmp ult [200 x i32]* %1, %46
  %48 = and i1 %45, %47
  br i1 %48, label %117, label %49

49:                                               ; preds = %40
  %50 = and i64 %17, 4294967288
  %51 = and i64 %17, 7
  %52 = add nsw i64 %50, -8
  %53 = lshr exact i64 %52, 3
  %54 = add nuw nsw i64 %53, 1
  %55 = and i64 %54, 1
  %56 = icmp eq i64 %52, 0
  br i1 %56, label %97, label %57

57:                                               ; preds = %49
  %58 = and i64 %54, 4611686018427387902
  br label %59

59:                                               ; preds = %59, %57
  %60 = phi i64 [ 0, %57 ], [ %92, %59 ]
  %61 = phi i64 [ %58, %57 ], [ %93, %59 ]
  %62 = xor i64 %60, -1
  %63 = add i64 %62, %17
  %64 = getelementptr inbounds [200 x i32], [200 x i32]* %1, i64 0, i64 %63
  %65 = getelementptr inbounds i32, i32* %64, i64 -3
  %66 = bitcast i32* %65 to <4 x i32>*
  %67 = load <4 x i32>, <4 x i32>* %66, align 4, !tbaa !5, !alias.scope !9
  %68 = getelementptr inbounds i32, i32* %64, i64 -7
  %69 = bitcast i32* %68 to <4 x i32>*
  %70 = load <4 x i32>, <4 x i32>* %69, align 4, !tbaa !5, !alias.scope !9
  %71 = add nsw i64 %63, %18
  %72 = getelementptr inbounds [200 x i32], [200 x i32]* %1, i64 0, i64 %71
  %73 = getelementptr inbounds i32, i32* %72, i64 -3
  %74 = bitcast i32* %73 to <4 x i32>*
  store <4 x i32> %67, <4 x i32>* %74, align 4, !tbaa !5, !alias.scope !12, !noalias !9
  %75 = getelementptr inbounds i32, i32* %72, i64 -7
  %76 = bitcast i32* %75 to <4 x i32>*
  store <4 x i32> %70, <4 x i32>* %76, align 4, !tbaa !5, !alias.scope !12, !noalias !9
  %77 = sub nuw nsw i64 -9, %60
  %78 = add i64 %77, %17
  %79 = getelementptr inbounds [200 x i32], [200 x i32]* %1, i64 0, i64 %78
  %80 = getelementptr inbounds i32, i32* %79, i64 -3
  %81 = bitcast i32* %80 to <4 x i32>*
  %82 = load <4 x i32>, <4 x i32>* %81, align 4, !tbaa !5, !alias.scope !9
  %83 = getelementptr inbounds i32, i32* %79, i64 -7
  %84 = bitcast i32* %83 to <4 x i32>*
  %85 = load <4 x i32>, <4 x i32>* %84, align 4, !tbaa !5, !alias.scope !9
  %86 = add nsw i64 %78, %18
  %87 = getelementptr inbounds [200 x i32], [200 x i32]* %1, i64 0, i64 %86
  %88 = getelementptr inbounds i32, i32* %87, i64 -3
  %89 = bitcast i32* %88 to <4 x i32>*
  store <4 x i32> %82, <4 x i32>* %89, align 4, !tbaa !5, !alias.scope !12, !noalias !9
  %90 = getelementptr inbounds i32, i32* %87, i64 -7
  %91 = bitcast i32* %90 to <4 x i32>*
  store <4 x i32> %85, <4 x i32>* %91, align 4, !tbaa !5, !alias.scope !12, !noalias !9
  %92 = add nuw i64 %60, 16
  %93 = add i64 %61, -2
  %94 = icmp eq i64 %93, 0
  br i1 %94, label %95, label %59, !llvm.loop !14

95:                                               ; preds = %59
  %96 = sub i64 -17, %60
  br label %97

97:                                               ; preds = %95, %49
  %98 = phi i64 [ -1, %49 ], [ %96, %95 ]
  %99 = icmp eq i64 %55, 0
  br i1 %99, label %115, label %100

100:                                              ; preds = %97
  %101 = add i64 %98, %17
  %102 = getelementptr inbounds [200 x i32], [200 x i32]* %1, i64 0, i64 %101
  %103 = getelementptr inbounds i32, i32* %102, i64 -3
  %104 = bitcast i32* %103 to <4 x i32>*
  %105 = load <4 x i32>, <4 x i32>* %104, align 4, !tbaa !5, !alias.scope !9
  %106 = getelementptr inbounds i32, i32* %102, i64 -7
  %107 = bitcast i32* %106 to <4 x i32>*
  %108 = load <4 x i32>, <4 x i32>* %107, align 4, !tbaa !5, !alias.scope !9
  %109 = add nsw i64 %101, %18
  %110 = getelementptr inbounds [200 x i32], [200 x i32]* %1, i64 0, i64 %109
  %111 = getelementptr inbounds i32, i32* %110, i64 -3
  %112 = bitcast i32* %111 to <4 x i32>*
  store <4 x i32> %105, <4 x i32>* %112, align 4, !tbaa !5, !alias.scope !12, !noalias !9
  %113 = getelementptr inbounds i32, i32* %110, i64 -7
  %114 = bitcast i32* %113 to <4 x i32>*
  store <4 x i32> %108, <4 x i32>* %114, align 4, !tbaa !5, !alias.scope !12, !noalias !9
  br label %115

115:                                              ; preds = %97, %100
  %116 = icmp eq i64 %50, %17
  br i1 %116, label %127, label %117

117:                                              ; preds = %40, %20, %16, %115
  %118 = phi i64 [ %17, %40 ], [ %17, %20 ], [ %17, %16 ], [ %51, %115 ]
  br label %131

119:                                              ; preds = %0, %119
  %120 = phi i64 [ %123, %119 ], [ 0, %0 ]
  %121 = getelementptr inbounds [200 x i32], [200 x i32]* %1, i64 0, i64 %120
  %122 = call i32 (i8*, ...) @__isoc99_scanf(i8* getelementptr inbounds ([3 x i8], [3 x i8]* @.str.1, i64 0, i64 0), i32* nonnull %121)
  %123 = add nuw nsw i64 %120, 1
  %124 = load i32, i32* %4, align 4, !tbaa !5
  %125 = sext i32 %124 to i64
  %126 = icmp slt i64 %123, %125
  br i1 %126, label %119, label %13, !llvm.loop !17

127:                                              ; preds = %131, %115, %11, %13
  %128 = phi i32 [ %12, %11 ], [ %14, %13 ], [ %14, %115 ], [ %14, %131 ]
  %129 = phi i32 [ %9, %11 ], [ %124, %13 ], [ %124, %115 ], [ %124, %131 ]
  %130 = icmp sgt i32 %128, 0
  br i1 %130, label %139, label %247

131:                                              ; preds = %117, %131
  %132 = phi i64 [ %133, %131 ], [ %118, %117 ]
  %133 = add nsw i64 %132, -1
  %134 = getelementptr inbounds [200 x i32], [200 x i32]* %1, i64 0, i64 %133
  %135 = load i32, i32* %134, align 4, !tbaa !5
  %136 = add nsw i64 %133, %18
  %137 = getelementptr inbounds [200 x i32], [200 x i32]* %1, i64 0, i64 %136
  store i32 %135, i32* %137, align 4, !tbaa !5
  %138 = icmp sgt i64 %132, 1
  br i1 %138, label %131, label %127, !llvm.loop !18

139:                                              ; preds = %127
  %140 = zext i32 %128 to i64
  %141 = shl nuw nsw i64 %140, 2
  call void @llvm.memset.p0i8.i64(i8* nonnull align 16 %3, i8 0, i64 %141, i1 false)
  %142 = add nsw i32 %128, %129
  %143 = sext i32 %129 to i64
  %144 = sext i32 %142 to i64
  %145 = add nsw i64 %143, 1
  %146 = call i64 @llvm.smax.i64(i64 %145, i64 %144)
  %147 = sub i64 %146, %143
  %148 = icmp ult i64 %147, 8
  br i1 %148, label %245, label %149

149:                                              ; preds = %139
  %150 = add nsw i64 %143, 1
  %151 = call i64 @llvm.smax.i64(i64 %150, i64 %144)
  %152 = sub i64 %151, %143
  %153 = getelementptr [200 x i32], [200 x i32]* %1, i64 0, i64 %152
  %154 = getelementptr [200 x i32], [200 x i32]* %1, i64 0, i64 %143
  %155 = getelementptr [200 x i32], [200 x i32]* %1, i64 0, i64 %151
  %156 = bitcast i32* %155 to [200 x i32]*
  %157 = icmp ult [200 x i32]* %1, %156
  %158 = icmp ult i32* %154, %153
  %159 = and i1 %157, %158
  br i1 %159, label %245, label %160

160:                                              ; preds = %149
  %161 = and i64 %147, -8
  %162 = add i64 %161, %143
  %163 = add i64 %161, -8
  %164 = lshr exact i64 %163, 3
  %165 = add nuw nsw i64 %164, 1
  %166 = and i64 %165, 3
  %167 = icmp ult i64 %163, 24
  br i1 %167, label %223, label %168

168:                                              ; preds = %160
  %169 = and i64 %165, 4611686018427387900
  br label %170

170:                                              ; preds = %170, %168
  %171 = phi i64 [ 0, %168 ], [ %220, %170 ]
  %172 = phi i64 [ %169, %168 ], [ %221, %170 ]
  %173 = add i64 %171, %143
  %174 = getelementptr inbounds [200 x i32], [200 x i32]* %1, i64 0, i64 %173
  %175 = bitcast i32* %174 to <4 x i32>*
  %176 = load <4 x i32>, <4 x i32>* %175, align 4, !tbaa !5, !alias.scope !19
  %177 = getelementptr inbounds i32, i32* %174, i64 4
  %178 = bitcast i32* %177 to <4 x i32>*
  %179 = load <4 x i32>, <4 x i32>* %178, align 4, !tbaa !5, !alias.scope !19
  %180 = getelementptr inbounds [200 x i32], [200 x i32]* %1, i64 0, i64 %171
  %181 = bitcast i32* %180 to <4 x i32>*
  store <4 x i32> %176, <4 x i32>* %181, align 16, !tbaa !5, !alias.scope !22, !noalias !19
  %182 = getelementptr inbounds i32, i32* %180, i64 4
  %183 = bitcast i32* %182 to <4 x i32>*
  store <4 x i32> %179, <4 x i32>* %183, align 16, !tbaa !5, !alias.scope !22, !noalias !19
  %184 = or i64 %171, 8
  %185 = add i64 %184, %143
  %186 = getelementptr inbounds [200 x i32], [200 x i32]* %1, i64 0, i64 %185
  %187 = bitcast i32* %186 to <4 x i32>*
  %188 = load <4 x i32>, <4 x i32>* %187, align 4, !tbaa !5, !alias.scope !19
  %189 = getelementptr inbounds i32, i32* %186, i64 4
  %190 = bitcast i32* %189 to <4 x i32>*
  %191 = load <4 x i32>, <4 x i32>* %190, align 4, !tbaa !5, !alias.scope !19
  %192 = getelementptr inbounds [200 x i32], [200 x i32]* %1, i64 0, i64 %184
  %193 = bitcast i32* %192 to <4 x i32>*
  store <4 x i32> %188, <4 x i32>* %193, align 16, !tbaa !5, !alias.scope !22, !noalias !19
  %194 = getelementptr inbounds i32, i32* %192, i64 4
  %195 = bitcast i32* %194 to <4 x i32>*
  store <4 x i32> %191, <4 x i32>* %195, align 16, !tbaa !5, !alias.scope !22, !noalias !19
  %196 = or i64 %171, 16
  %197 = add i64 %196, %143
  %198 = getelementptr inbounds [200 x i32], [200 x i32]* %1, i64 0, i64 %197
  %199 = bitcast i32* %198 to <4 x i32>*
  %200 = load <4 x i32>, <4 x i32>* %199, align 4, !tbaa !5, !alias.scope !19
  %201 = getelementptr inbounds i32, i32* %198, i64 4
  %202 = bitcast i32* %201 to <4 x i32>*
  %203 = load <4 x i32>, <4 x i32>* %202, align 4, !tbaa !5, !alias.scope !19
  %204 = getelementptr inbounds [200 x i32], [200 x i32]* %1, i64 0, i64 %196
  %205 = bitcast i32* %204 to <4 x i32>*
  store <4 x i32> %200, <4 x i32>* %205, align 16, !tbaa !5, !alias.scope !22, !noalias !19
  %206 = getelementptr inbounds i32, i32* %204, i64 4
  %207 = bitcast i32* %206 to <4 x i32>*
  store <4 x i32> %203, <4 x i32>* %207, align 16, !tbaa !5, !alias.scope !22, !noalias !19
  %208 = or i64 %171, 24
  %209 = add i64 %208, %143
  %210 = getelementptr inbounds [200 x i32], [200 x i32]* %1, i64 0, i64 %209
  %211 = bitcast i32* %210 to <4 x i32>*
  %212 = load <4 x i32>, <4 x i32>* %211, align 4, !tbaa !5, !alias.scope !19
  %213 = getelementptr inbounds i32, i32* %210, i64 4
  %214 = bitcast i32* %213 to <4 x i32>*
  %215 = load <4 x i32>, <4 x i32>* %214, align 4, !tbaa !5, !alias.scope !19
  %216 = getelementptr inbounds [200 x i32], [200 x i32]* %1, i64 0, i64 %208
  %217 = bitcast i32* %216 to <4 x i32>*
  store <4 x i32> %212, <4 x i32>* %217, align 16, !tbaa !5, !alias.scope !22, !noalias !19
  %218 = getelementptr inbounds i32, i32* %216, i64 4
  %219 = bitcast i32* %218 to <4 x i32>*
  store <4 x i32> %215, <4 x i32>* %219, align 16, !tbaa !5, !alias.scope !22, !noalias !19
  %220 = add nuw i64 %171, 32
  %221 = add i64 %172, -4
  %222 = icmp eq i64 %221, 0
  br i1 %222, label %223, label %170, !llvm.loop !24

223:                                              ; preds = %170, %160
  %224 = phi i64 [ 0, %160 ], [ %220, %170 ]
  %225 = icmp eq i64 %166, 0
  br i1 %225, label %243, label %226

226:                                              ; preds = %223, %226
  %227 = phi i64 [ %240, %226 ], [ %224, %223 ]
  %228 = phi i64 [ %241, %226 ], [ %166, %223 ]
  %229 = add i64 %227, %143
  %230 = getelementptr inbounds [200 x i32], [200 x i32]* %1, i64 0, i64 %229
  %231 = bitcast i32* %230 to <4 x i32>*
  %232 = load <4 x i32>, <4 x i32>* %231, align 4, !tbaa !5, !alias.scope !19
  %233 = getelementptr inbounds i32, i32* %230, i64 4
  %234 = bitcast i32* %233 to <4 x i32>*
  %235 = load <4 x i32>, <4 x i32>* %234, align 4, !tbaa !5, !alias.scope !19
  %236 = getelementptr inbounds [200 x i32], [200 x i32]* %1, i64 0, i64 %227
  %237 = bitcast i32* %236 to <4 x i32>*
  store <4 x i32> %232, <4 x i32>* %237, align 16, !tbaa !5, !alias.scope !22, !noalias !19
  %238 = getelementptr inbounds i32, i32* %236, i64 4
  %239 = bitcast i32* %238 to <4 x i32>*
  store <4 x i32> %235, <4 x i32>* %239, align 16, !tbaa !5, !alias.scope !22, !noalias !19
  %240 = add nuw i64 %227, 8
  %241 = add i64 %228, -1
  %242 = icmp eq i64 %241, 0
  br i1 %242, label %243, label %226, !llvm.loop !25

243:                                              ; preds = %226, %223
  %244 = icmp eq i64 %147, %161
  br i1 %244, label %247, label %245

245:                                              ; preds = %149, %139, %243
  %246 = phi i64 [ %143, %149 ], [ %143, %139 ], [ %162, %243 ]
  br label %252

247:                                              ; preds = %252, %243, %127
  %248 = icmp sgt i32 %129, 1
  br i1 %248, label %260, label %249

249:                                              ; preds = %247
  %250 = add nsw i32 %129, -1
  %251 = sext i32 %250 to i64
  br label %270

252:                                              ; preds = %245, %252
  %253 = phi i64 [ %258, %252 ], [ %246, %245 ]
  %254 = getelementptr inbounds [200 x i32], [200 x i32]* %1, i64 0, i64 %253
  %255 = load i32, i32* %254, align 4, !tbaa !5
  %256 = sub nsw i64 %253, %143
  %257 = getelementptr inbounds [200 x i32], [200 x i32]* %1, i64 0, i64 %256
  store i32 %255, i32* %257, align 4, !tbaa !5
  %258 = add nsw i64 %253, 1
  %259 = icmp slt i64 %258, %144
  br i1 %259, label %252, label %247, !llvm.loop !27

260:                                              ; preds = %247, %260
  %261 = phi i64 [ %265, %260 ], [ 0, %247 ]
  %262 = getelementptr inbounds [200 x i32], [200 x i32]* %1, i64 0, i64 %261
  %263 = load i32, i32* %262, align 4, !tbaa !5
  %264 = call i32 (i8*, ...) @printf(i8* nonnull dereferenceable(1) getelementptr inbounds ([4 x i8], [4 x i8]* @.str.2, i64 0, i64 0), i32 %263)
  %265 = add nuw nsw i64 %261, 1
  %266 = load i32, i32* %4, align 4, !tbaa !5
  %267 = add nsw i32 %266, -1
  %268 = sext i32 %267 to i64
  %269 = icmp slt i64 %265, %268
  br i1 %269, label %260, label %270, !llvm.loop !28

270:                                              ; preds = %260, %249
  %271 = phi i64 [ %251, %249 ], [ %268, %260 ]
  %272 = getelementptr inbounds [200 x i32], [200 x i32]* %1, i64 0, i64 %271
  %273 = load i32, i32* %272, align 4, !tbaa !5
  %274 = call i32 (i8*, ...) @printf(i8* nonnull dereferenceable(1) getelementptr inbounds ([3 x i8], [3 x i8]* @.str.1, i64 0, i64 0), i32 %273)
  call void @llvm.lifetime.end.p0i8(i64 4, i8* nonnull %7) #5
  call void @llvm.lifetime.end.p0i8(i64 4, i8* nonnull %6) #5
  call void @llvm.lifetime.end.p0i8(i64 800, i8* nonnull %3) #5
  ret void
}

; Function Attrs: argmemonly mustprogress nofree nosync nounwind willreturn
declare void @llvm.lifetime.start.p0i8(i64 immarg, i8* nocapture) #1

; Function Attrs: nofree nounwind
declare noundef i32 @__isoc99_scanf(i8* nocapture noundef readonly, ...) local_unnamed_addr #2

; Function Attrs: nofree nounwind
declare noundef i32 @printf(i8* nocapture noundef readonly, ...) local_unnamed_addr #2

; Function Attrs: argmemonly mustprogress nofree nosync nounwind willreturn
declare void @llvm.lifetime.end.p0i8(i64 immarg, i8* nocapture) #1

; Function Attrs: argmemonly nofree nounwind willreturn writeonly
declare void @llvm.memset.p0i8.i64(i8* nocapture writeonly, i8, i64, i1 immarg) #3

; Function Attrs: nofree nosync nounwind readnone speculatable willreturn
declare { i64, i1 } @llvm.umul.with.overflow.i64(i64, i64) #4

; Function Attrs: nofree nosync nounwind readnone speculatable willreturn
declare i64 @llvm.smax.i64(i64, i64) #4


!llvm.module.flags = !{!0, !1, !2, !3}
!llvm.ident = !{!4}

!0 = !{i32 1, !"wchar_size", i32 4}
!1 = !{i32 7, !"PIC Level", i32 2}
!2 = !{i32 7, !"PIE Level", i32 2}
!3 = !{i32 7, !"uwtable", i32 1}
!4 = !{!"clang version 13.0.0"}
!5 = !{!6, !6, i64 0}
!6 = !{!"int", !7, i64 0}
!7 = !{!"omnipotent char", !8, i64 0}
!8 = !{!"Simple C/C++ TBAA"}
!9 = !{!10}
!10 = distinct !{!10, !11}
!11 = distinct !{!11, !"LVerDomain"}
!12 = !{!13}
!13 = distinct !{!13, !11}
!14 = distinct !{!14, !15, !16}
!15 = !{!"llvm.loop.mustprogress"}
!16 = !{!"llvm.loop.isvectorized", i32 1}
!17 = distinct !{!17, !15}
!18 = distinct !{!18, !15, !16}
!19 = !{!20}
!20 = distinct !{!20, !21}
!21 = distinct !{!21, !"LVerDomain"}
!22 = !{!23}
!23 = distinct !{!23, !21}
!24 = distinct !{!24, !15, !16}
!25 = distinct !{!25, !26}
!26 = !{!"llvm.loop.unroll.disable"}
!27 = distinct !{!27, !15, !16}
!28 = distinct !{!28, !15}
